target datalayout = "e-m:e-p270:32:32-p271:32:32-p272:64:64-i64:64-i128:128-f80:128-n8:16:32:64-S128"
target triple = "x86_64-pc-linux-gnu"

%class.Node = type <{ ptr, ptr, ptr, i32, i32, i32, i32, i32, i32, i32, [4 x i8] }>
%"class.MergePrimitiveArrayStores::Status" = type <{ ptr, i8, [7 x i8] }>

; Function Attrs: mustprogress nounwind uwtable
define linkonce_odr hidden noundef ptr @_ZNK4Node8as_StoreEv(ptr noundef nonnull align 8 dereferenceable(52) %0) #1 comdat align 2 {
  %2 = alloca ptr, align 8
  store ptr %0, ptr %2, align 8
  %3 = load ptr, ptr %2, align 8
  ret ptr %3
}

; Function Attrs: mustprogress nounwind uwtable
define linkonce_odr hidden noundef zeroext i1 @_ZNK4Node8is_StoreEv(ptr noundef nonnull align 8 dereferenceable(52) %0) #1 comdat align 2 {
  %2 = alloca ptr, align 8
  store ptr %0, ptr %2, align 8
  %3 = load ptr, ptr %2, align 8
  %4 = getelementptr inbounds %class.Node, ptr %3, i32 0, i32 8
  %5 = load i32, ptr %4, align 4
  %6 = and i32 %5, 127
  %7 = icmp eq i32 %6, 80
  ret i1 %7
}

; Function Attrs: mustprogress nounwind uwtable
define linkonce_odr hidden { ptr, i8 } @_ZN25MergePrimitiveArrayStores6Status4makeEP9StoreNodeNS_9CFGStatusE(ptr noundef %0, i32 noundef %1) #1 comdat align 2 {
  %3 = alloca %"class.MergePrimitiveArrayStores::Status", align 8
  %4 = alloca ptr, align 8
  %5 = alloca i32, align 4
  store ptr %0, ptr %4, align 8
  store i32 %1, ptr %5, align 4
  %6 = load i32, ptr %5, align 4
  %7 = icmp eq i32 %6, 2
  br i1 %7, label %8, label %14

8:                                                ; preds = %2
  %9 = call { ptr, i8 } @_ZN25MergePrimitiveArrayStores6Status12make_failureEv()
  %10 = getelementptr inbounds { ptr, i8 }, ptr %3, i32 0, i32 0
  %11 = extractvalue { ptr, i8 } %9, 0
  store ptr %11, ptr %10, align 8
  %12 = getelementptr inbounds { ptr, i8 }, ptr %3, i32 0, i32 1
  %13 = extractvalue { ptr, i8 } %9, 1
  store i8 %13, ptr %12, align 8
  br label %18

14:                                               ; preds = %2
  %15 = load ptr, ptr %4, align 8
  %16 = load i32, ptr %5, align 4
  %17 = icmp eq i32 %16, 1
  call void @_ZN25MergePrimitiveArrayStores6StatusC2EP9StoreNodeb(ptr noundef nonnull align 8 dereferenceable(9) %3, ptr noundef %15, i1 noundef zeroext %17)
  br label %18

18:                                               ; preds = %14, %8
  %19 = load { ptr, i8 }, ptr %3, align 8
  ret { ptr, i8 } %19
}

; Function Attrs: mustprogress nounwind uwtable
define linkonce_odr hidden noundef ptr @_ZNK4Node9isa_StoreEv(ptr noundef nonnull align 8 dereferenceable(52) %0) #1 comdat align 2 {
  %2 = alloca ptr, align 8
  store ptr %0, ptr %2, align 8
  %3 = load ptr, ptr %2, align 8
  %4 = call noundef zeroext i1 @_ZNK4Node8is_StoreEv(ptr noundef nonnull align 8 dereferenceable(52) %3)
  br i1 %4, label %5, label %7

5:                                                ; preds = %1
  %6 = call noundef ptr @_ZNK4Node8as_StoreEv(ptr noundef nonnull align 8 dereferenceable(52) %3)
  br label %8

7:                                                ; preds = %1
  br label %8

8:                                                ; preds = %7, %5
  %9 = phi ptr [ %6, %5 ], [ null, %7 ]
  ret ptr %9
}

; Function Attrs: mustprogress nounwind uwtable
define linkonce_odr hidden noundef ptr @_ZNK4Node8fast_outEPPS_(ptr noundef nonnull align 8 dereferenceable(52) %0, ptr noundef %1) #1 comdat align 2 {
  %3 = alloca ptr, align 8
  %4 = alloca ptr, align 8
  store ptr %0, ptr %3, align 8
  store ptr %1, ptr %4, align 8
  %5 = load ptr, ptr %4, align 8
  %6 = load ptr, ptr %5, align 8
  ret ptr %6
}

; Function Attrs: mustprogress nounwind uwtable
define linkonce_odr hidden noundef ptr @_ZNK4Node9fast_outsERPPS_(ptr noundef nonnull align 8 dereferenceable(52) %0, ptr noundef nonnull align 8 dereferenceable(8) %1) #1 comdat align 2 {
  %3 = alloca ptr, align 8
  %4 = alloca ptr, align 8
  %5 = alloca ptr, align 8
  store ptr %0, ptr %3, align 8
  store ptr %1, ptr %4, align 8
  %6 = load ptr, ptr %3, align 8
  %7 = getelementptr inbounds %class.Node, ptr %6, i32 0, i32 2
  %8 = load ptr, ptr %7, align 8
  store ptr %8, ptr %5, align 8
  %9 = load ptr, ptr %5, align 8
  %10 = getelementptr inbounds %class.Node, ptr %6, i32 0, i32 5
  %11 = load i32, ptr %10, align 8
  %12 = zext i32 %11 to i64
  %13 = getelementptr inbounds ptr, ptr %9, i64 %12
  %14 = load ptr, ptr %4, align 8
  store ptr %13, ptr %14, align 8
  %15 = load ptr, ptr %5, align 8
  ret ptr %15
}

; Function Attrs: mustprogress nounwind uwtable
define linkonce_odr hidden void @_ZN25MergePrimitiveArrayStores6StatusC2EP9StoreNodeb(ptr noundef nonnull align 8 dereferenceable(9) %0, ptr noundef %1, i1 noundef zeroext %2) unnamed_addr #1 comdat align 2 {
  %4 = alloca ptr, align 8
  %5 = alloca ptr, align 8
  %6 = alloca i8, align 1
  store ptr %0, ptr %4, align 8
  store ptr %1, ptr %5, align 8
  %7 = zext i1 %2 to i8
  store i8 %7, ptr %6, align 1
  %8 = load ptr, ptr %4, align 8
  %9 = getelementptr inbounds %"class.MergePrimitiveArrayStores::Status", ptr %8, i32 0, i32 0
  %10 = load ptr, ptr %5, align 8
  store ptr %10, ptr %9, align 8
  %11 = getelementptr inbounds %"class.MergePrimitiveArrayStores::Status", ptr %8, i32 0, i32 1
  %12 = load i8, ptr %6, align 1
  %13 = trunc i8 %12 to i1
  %14 = zext i1 %13 to i8
  store i8 %14, ptr %11, align 8
  ret void
}

; Function Attrs: mustprogress nounwind uwtable
define hidden { ptr, i8 } @_ZNK25MergePrimitiveArrayStores29find_use_store_unidirectionalEPK9StoreNode(ptr noundef nonnull align 8 dereferenceable(16) %0, ptr noundef %1) #1 align 2 {
  %3 = alloca %"class.MergePrimitiveArrayStores::Status", align 8
  %4 = alloca ptr, align 8
  %5 = alloca ptr, align 8
  %6 = alloca ptr, align 8
  %7 = alloca ptr, align 8
  %8 = alloca ptr, align 8
  store ptr %0, ptr %4, align 8
  store ptr %1, ptr %5, align 8
  %9 = load ptr, ptr %4, align 8
  %10 = load ptr, ptr %5, align 8
  %11 = call noundef ptr @_ZNK4Node9fast_outsERPPS_(ptr noundef nonnull align 8 dereferenceable(52) %10, ptr noundef nonnull align 8 dereferenceable(8) %6)
  store ptr %11, ptr %7, align 8
  br label %12

12:                                               ; preds = %34, %2
  %13 = load ptr, ptr %7, align 8
  %14 = load ptr, ptr %6, align 8
  %15 = icmp ult ptr %13, %14
  br i1 %15, label %16, label %37

16:                                               ; preds = %12
  %17 = load ptr, ptr %5, align 8
  %18 = load ptr, ptr %7, align 8
  %19 = call noundef ptr @_ZNK4Node8fast_outEPPS_(ptr noundef nonnull align 8 dereferenceable(52) %17, ptr noundef %18)
  %20 = call noundef ptr @_ZNK4Node9isa_StoreEv(ptr noundef nonnull align 8 dereferenceable(52) %19)
  store ptr %20, ptr %8, align 8
  %21 = load ptr, ptr %8, align 8
  %22 = call noundef zeroext i1 @_ZNK25MergePrimitiveArrayStores19is_compatible_storeEPK9StoreNode(ptr noundef nonnull align 8 dereferenceable(16) %9, ptr noundef %21)
  br i1 %22, label %23, label %33

23:                                               ; preds = %16
  %24 = load ptr, ptr %8, align 8
  %25 = load ptr, ptr %8, align 8
  %26 = load ptr, ptr %5, align 8
  %27 = call noundef i32 @_ZN25MergePrimitiveArrayStores19cfg_status_for_pairEPK9StoreNodeS2_(ptr noundef %25, ptr noundef %26)
  %28 = call { ptr, i8 } @_ZN25MergePrimitiveArrayStores6Status4makeEP9StoreNodeNS_9CFGStatusE(ptr noundef %24, i32 noundef %27)
  %29 = getelementptr inbounds { ptr, i8 }, ptr %3, i32 0, i32 0
  %30 = extractvalue { ptr, i8 } %28, 0
  store ptr %30, ptr %29, align 8
  %31 = getelementptr inbounds { ptr, i8 }, ptr %3, i32 0, i32 1
  %32 = extractvalue { ptr, i8 } %28, 1
  store i8 %32, ptr %31, align 8
  br label %43

33:                                               ; preds = %16
  br label %34

34:                                               ; preds = %33
  %35 = load ptr, ptr %7, align 8
  %36 = getelementptr inbounds ptr, ptr %35, i32 1
  store ptr %36, ptr %7, align 8
  br label %12, !llvm.loop !27

37:                                               ; preds = %12
  %38 = call { ptr, i8 } @_ZN25MergePrimitiveArrayStores6Status12make_failureEv()
  %39 = getelementptr inbounds { ptr, i8 }, ptr %3, i32 0, i32 0
  %40 = extractvalue { ptr, i8 } %38, 0
  store ptr %40, ptr %39, align 8
  %41 = getelementptr inbounds { ptr, i8 }, ptr %3, i32 0, i32 1
  %42 = extractvalue { ptr, i8 } %38, 1
  store i8 %42, ptr %41, align 8
  br label %43

43:                                               ; preds = %37, %23
  %44 = load { ptr, i8 }, ptr %3, align 8
  ret { ptr, i8 } %44
}

; Function Attrs: mustprogress nounwind uwtable
define linkonce_odr hidden { ptr, i8 } @_ZN25MergePrimitiveArrayStores6Status12make_failureEv() #1 comdat align 2 {
  %1 = alloca %"class.MergePrimitiveArrayStores::Status", align 8
  call void @_ZN25MergePrimitiveArrayStores6StatusC2EP9StoreNodeb(ptr noundef nonnull align 8 dereferenceable(9) %1, ptr noundef null, i1 noundef zeroext false)
  %2 = load { ptr, i8 }, ptr %1, align 8
  ret { ptr, i8 } %2
}

; Function Attrs: mustprogress nounwind uwtable
define linkonce_odr hidden noundef ptr @_ZNK25MergePrimitiveArrayStores6Status11found_storeEv(ptr noundef nonnull align 8 dereferenceable(9) %0) #1 comdat align 2 {
  %2 = alloca ptr, align 8
  store ptr %0, ptr %2, align 8
  %3 = load ptr, ptr %2, align 8
  %4 = getelementptr inbounds %"class.MergePrimitiveArrayStores::Status", ptr %3, i32 0, i32 0
  %5 = load ptr, ptr %4, align 8
  ret ptr %5
}

; Function Attrs: mustprogress nounwind uwtable
define hidden { ptr, i8 } @_ZNK25MergePrimitiveArrayStores14find_use_storeEPK9StoreNode(ptr noundef nonnull align 8 dereferenceable(16) %0, ptr noundef %1) #1 align 2 {
  %3 = alloca %"class.MergePrimitiveArrayStores::Status", align 8
  %4 = alloca ptr, align 8
  %5 = alloca ptr, align 8
  store ptr %0, ptr %4, align 8
  store ptr %1, ptr %5, align 8
  %6 = load ptr, ptr %4, align 8
  %7 = load ptr, ptr %5, align 8
  %8 = call { ptr, i8 } @_ZNK25MergePrimitiveArrayStores29find_use_store_unidirectionalEPK9StoreNode(ptr noundef nonnull align 8 dereferenceable(16) %6, ptr noundef %7)
  %9 = getelementptr inbounds { ptr, i8 }, ptr %3, i32 0, i32 0
  %10 = extractvalue { ptr, i8 } %8, 0
  store ptr %10, ptr %9, align 8
  %11 = getelementptr inbounds { ptr, i8 }, ptr %3, i32 0, i32 1
  %12 = extractvalue { ptr, i8 } %8, 1
  store i8 %12, ptr %11, align 8
  %13 = load { ptr, i8 }, ptr %3, align 8
  ret { ptr, i8 } %13
}

; Function Attrs: mustprogress nounwind uwtable
define hidden { ptr, i8 } @_ZNK25MergePrimitiveArrayStores23find_adjacent_use_storeEPK9StoreNode(ptr noundef nonnull align 8 dereferenceable(16) %0, ptr noundef %1) #1 align 2 {
  %3 = alloca %"class.MergePrimitiveArrayStores::Status", align 8
  %4 = alloca ptr, align 8
  %5 = alloca ptr, align 8
  %6 = alloca %"class.MergePrimitiveArrayStores::Status", align 8
  %7 = alloca ptr, align 8
  store ptr %0, ptr %4, align 8
  store ptr %1, ptr %5, align 8
  %8 = load ptr, ptr %4, align 8
  %9 = load ptr, ptr %5, align 8
  %10 = call { ptr, i8 } @_ZNK25MergePrimitiveArrayStores14find_use_storeEPK9StoreNode(ptr noundef nonnull align 8 dereferenceable(16) %8, ptr noundef %9)
  %11 = getelementptr inbounds { ptr, i8 }, ptr %6, i32 0, i32 0
  %12 = extractvalue { ptr, i8 } %10, 0
  store ptr %12, ptr %11, align 8
  %13 = getelementptr inbounds { ptr, i8 }, ptr %6, i32 0, i32 1
  %14 = extractvalue { ptr, i8 } %10, 1
  store i8 %14, ptr %13, align 8
  %15 = call noundef ptr @_ZNK25MergePrimitiveArrayStores6Status11found_storeEv(ptr noundef nonnull align 8 dereferenceable(9) %6)
  store ptr %15, ptr %7, align 8
  %16 = load ptr, ptr %7, align 8
  %17 = icmp ne ptr %16, null
  br i1 %17, label %18, label %28

18:                                               ; preds = %2
  %19 = load ptr, ptr %7, align 8
  %20 = load ptr, ptr %5, align 8
  %21 = call noundef zeroext i1 @_ZNK25MergePrimitiveArrayStores16is_adjacent_pairEPK9StoreNodeS2_(ptr noundef nonnull align 8 dereferenceable(16) %8, ptr noundef %19, ptr noundef %20)
  br i1 %21, label %28, label %22

22:                                               ; preds = %18
  %23 = call { ptr, i8 } @_ZN25MergePrimitiveArrayStores6Status12make_failureEv()
  %24 = getelementptr inbounds { ptr, i8 }, ptr %3, i32 0, i32 0
  %25 = extractvalue { ptr, i8 } %23, 0
  store ptr %25, ptr %24, align 8
  %26 = getelementptr inbounds { ptr, i8 }, ptr %3, i32 0, i32 1
  %27 = extractvalue { ptr, i8 } %23, 1
  store i8 %27, ptr %26, align 8
  br label %29

28:                                               ; preds = %18, %2
  call void @llvm.memcpy.p0.p0.i64(ptr align 8 %3, ptr align 8 %6, i64 16, i1 false)
  br label %29

29:                                               ; preds = %28, %22
  %30 = load { ptr, i8 }, ptr %3, align 8
  ret { ptr, i8 } %30
}