; Function Attrs: mustprogress nounwind uwtable
define hidden { ptr, i8 } @_ZNK25MergePrimitiveArrayStores23find_adjacent_use_storeEPK9StoreNode(ptr nocapture noundef nonnull readonly align 8 dereferenceable(16) %0, ptr noundef %1) local_unnamed_addr #1 align 2 {
  %3 = getelementptr inbounds i8, ptr %1, i64 16
  %4 = load ptr, ptr %3, align 8
  %5 = getelementptr inbounds i8, ptr %1, i64 32
  %6 = load i32, ptr %5, align 8
  %7 = zext i32 %6 to i64
  %8 = getelementptr inbounds ptr, ptr %4, i64 %7
  %.not.i.i = icmp eq i32 %6, 0
  br i1 %.not.i.i, label %_ZNK25MergePrimitiveArrayStores14find_use_storeEPK9StoreNode.exit, label %.lr.ph.i.i

9:                                                ; preds = %.lr.ph.i.i
  %10 = getelementptr inbounds i8, ptr %.011.i.i, i64 8
  %11 = icmp ult ptr %10, %8
  br i1 %11, label %.lr.ph.i.i, label %_ZNK25MergePrimitiveArrayStores14find_use_storeEPK9StoreNode.exit, !llvm.loop !23

.lr.ph.i.i:                                       ; preds = %2, %9
  %.011.i.i = phi ptr [ %10, %9 ], [ %4, %2 ]
  %12 = load ptr, ptr %.011.i.i, align 8
  %13 = getelementptr inbounds i8, ptr %12, i64 44
  %14 = load i32, ptr %13, align 4
  %15 = and i32 %14, 127
  %16 = icmp eq i32 %15, 80
  %spec.select.i.i.i = select i1 %16, ptr %12, ptr null
  %17 = tail call noundef zeroext i1 @_ZNK25MergePrimitiveArrayStores19is_compatible_storeEPK9StoreNode(ptr noundef nonnull readonly align 8 dereferenceable(16) %0, ptr noundef %spec.select.i.i.i)
  br i1 %17, label %18, label %9

18:                                               ; preds = %.lr.ph.i.i
  %19 = tail call noundef i32 @_ZN25MergePrimitiveArrayStores19cfg_status_for_pairEPK9StoreNodeS2_(ptr noundef %spec.select.i.i.i, ptr noundef nonnull readonly %1)
  %20 = icmp eq i32 %19, 2
  %21 = icmp eq i32 %19, 1
  %22 = zext i1 %21 to i8
  %.sroa.0.0.i.i.i = select i1 %20, ptr null, ptr %spec.select.i.i.i
  %.fca.0.insert.i.i.i = insertvalue { ptr, i8 } poison, ptr %.sroa.0.0.i.i.i, 0
  %.fca.1.insert.i.i.i = insertvalue { ptr, i8 } %.fca.0.insert.i.i.i, i8 %22, 1
  br label %_ZNK25MergePrimitiveArrayStores14find_use_storeEPK9StoreNode.exit

_ZNK25MergePrimitiveArrayStores14find_use_storeEPK9StoreNode.exit: ; preds = %9, %2, %18
  %.pn.i.i = phi { ptr, i8 } [ %.fca.1.insert.i.i.i, %18 ], [ zeroinitializer, %2 ], [ zeroinitializer, %9 ]
  %23 = extractvalue { ptr, i8 } %.pn.i.i, 0
  %24 = extractvalue { ptr, i8 } %.pn.i.i, 1
  %.not = icmp eq ptr %23, null
  br i1 %.not, label %27, label %25

25:                                               ; preds = %_ZNK25MergePrimitiveArrayStores14find_use_storeEPK9StoreNode.exit
  %26 = tail call noundef zeroext i1 @_ZNK25MergePrimitiveArrayStores16is_adjacent_pairEPK9StoreNodeS2_(ptr noundef nonnull align 8 dereferenceable(16) %0, ptr noundef nonnull %23, ptr noundef %1)
  br i1 %26, label %27, label %28

27:                                               ; preds = %25, %_ZNK25MergePrimitiveArrayStores14find_use_storeEPK9StoreNode.exit
  br label %28

28:                                               ; preds = %25, %27
  %.sroa.0.0 = phi ptr [ %23, %27 ], [ null, %25 ]
  %.sroa.3.0 = phi i8 [ %24, %27 ], [ 0, %25 ]
  %.fca.0.insert = insertvalue { ptr, i8 } poison, ptr %.sroa.0.0, 0
  %.fca.1.insert = insertvalue { ptr, i8 } %.fca.0.insert, i8 %.sroa.3.0, 1
  ret { ptr, i8 } %.fca.1.insert
}